target datalayout = "e-m:e-p270:32:32-p271:32:32-p272:64:64-i64:64-i128:128-f80:128-n8:16:32:64-S128"
target triple = "x86_64-pc-linux-gnu"

@.str.3 = private unnamed_addr constant [7 x i8] c"SCRYPT\00", align 1

; Function Attrs: nounwind uwtable
define internal ptr @kdf_gettable_ctx_params(ptr noundef %0, ptr noundef %1, ptr noundef %2) #0 {
  %4 = alloca ptr, align 8
  %5 = alloca ptr, align 8
  %6 = alloca ptr, align 8
  %7 = alloca ptr, align 8
  %8 = alloca ptr, align 8
  %9 = alloca ptr, align 8
  %10 = alloca i32, align 4
  store ptr %0, ptr %5, align 8, !tbaa !3
  store ptr %1, ptr %6, align 8, !tbaa !3
  store ptr %2, ptr %7, align 8, !tbaa !13
  call void @llvm.lifetime.start.p0(i64 8, ptr %8) #4
  %11 = load ptr, ptr %6, align 8, !tbaa !3
  %12 = call ptr @ossl_prov_ctx_get0_libctx(ptr noundef %11)
  %13 = load ptr, ptr %7, align 8, !tbaa !13
  %14 = call ptr @EVP_KDF_fetch(ptr noundef %12, ptr noundef %13, ptr noundef null)
  store ptr %14, ptr %8, align 8, !tbaa !25
  call void @llvm.lifetime.start.p0(i64 8, ptr %9) #4
  %15 = load ptr, ptr %8, align 8, !tbaa !25
  %16 = icmp eq ptr %15, null
  br i1 %16, label %17, label %18

17:                                               ; preds = %3
  store ptr null, ptr %4, align 8
  store i32 1, ptr %10, align 4
  br label %23

18:                                               ; preds = %3
  %19 = load ptr, ptr %8, align 8, !tbaa !25
  %20 = call ptr @EVP_KDF_gettable_ctx_params(ptr noundef %19)
  store ptr %20, ptr %9, align 8, !tbaa !7
  %21 = load ptr, ptr %8, align 8, !tbaa !25
  call void @EVP_KDF_free(ptr noundef %21)
  %22 = load ptr, ptr %9, align 8, !tbaa !7
  store ptr %22, ptr %4, align 8
  store i32 1, ptr %10, align 4
  br label %23

23:                                               ; preds = %18, %17
  call void @llvm.lifetime.end.p0(i64 8, ptr %9) #4
  call void @llvm.lifetime.end.p0(i64 8, ptr %8) #4
  %24 = load ptr, ptr %4, align 8
  ret ptr %24
}

; Function Attrs: nounwind uwtable
define internal ptr @kdf_scrypt_gettable_ctx_params(ptr noundef %0, ptr noundef %1) #0 {
  %3 = alloca ptr, align 8
  %4 = alloca ptr, align 8
  store ptr %0, ptr %3, align 8, !tbaa !3
  store ptr %1, ptr %4, align 8, !tbaa !3
  %5 = load ptr, ptr %3, align 8, !tbaa !3
  %6 = load ptr, ptr %4, align 8, !tbaa !3
  %7 = call ptr @kdf_gettable_ctx_params(ptr noundef %5, ptr noundef %6, ptr noundef @.str.3)
  ret ptr %7
}